target datalayout = "e-m:e-p270:32:32-p271:32:32-p272:64:64-i64:64-i128:128-f80:128-n8:16:32:64-S128"
target triple = "x86_64-pc-linux-gnu"

%"class.llvm::SmallPtrSetImplBase.base" = type <{ ptr, ptr, i32, i32, i32 }>
%"class.llvm::Value" = type { i8, i8, i16, i32, ptr, ptr }
%"class.llvm::ilist_node_impl" = type { %"class.llvm::ilist_node_base" }
%"class.llvm::ilist_node_base" = type { %"class.llvm::ilist_detail::node_base_prevnext", %"class.llvm::ilist_detail::node_base_parent" }
%"class.llvm::ilist_detail::node_base_prevnext" = type { ptr, ptr }
%"class.llvm::ilist_detail::node_base_parent" = type { ptr }
%"class.std::optional.80" = type { %"struct.std::_Optional_base.81" }
%"struct.std::_Optional_base.81" = type { %"struct.std::_Optional_payload.83" }
%"struct.std::_Optional_payload.83" = type { %"struct.std::_Optional_payload.base.88", [7 x i8] }
%"struct.std::_Optional_payload.base.88" = type { %"struct.std::_Optional_payload_base.base.87" }
%"struct.std::_Optional_payload_base.base.87" = type { %"union.std::_Optional_payload_base<llvm::CostBenefitPair>::_Storage", i8 }
%"union.std::_Optional_payload_base<llvm::CostBenefitPair>::_Storage" = type { %"class.llvm::CostBenefitPair" }
%"class.llvm::CostBenefitPair" = type { %"class.llvm::APInt", %"class.llvm::APInt" }
%"class.llvm::APInt" = type <{ %union.anon.86, i32, [4 x i8] }>
%union.anon.86 = type { i64 }
%"class.llvm::function_ref.79" = type { ptr, i64 }
%"class.llvm::function_ref" = type { ptr, i64 }
%"class.(anonymous namespace)::InlineCostCallAnalyzer" = type { %"class.(anonymous namespace)::CallAnalyzer", i8, i32, i32, i32, ptr, %"class.llvm::DenseMap.115", i32, i32, i8, i8, i8, i32, i32, i32, i8, i8, [6 x i8], %"class.std::optional.80", i8, i32, i32, [4 x i8], %"class.llvm::DenseMap.118", %"class.(anonymous namespace)::InlineCostAnnotationWriter" }
%"class.(anonymous namespace)::CallAnalyzer" = type { ptr, ptr, %"class.llvm::function_ref", %"class.llvm::function_ref.79", ptr, ptr, ptr, ptr, ptr, i8, i8, i8, i8, i8, i8, i8, i8, i8, i64, i32, i32, %"class.llvm::DenseMap", %"class.llvm::DenseMap.97", %"class.llvm::DenseSet", %"class.llvm::DenseMap.103", %"class.llvm::SmallPtrSet.106", %"class.llvm::DenseMap.109", i8, i8, %"class.llvm::SmallPtrSet.112", i32, i32, i32, i32, i32, i32 }
%"class.llvm::DenseMap" = type <{ ptr, i32, i32, i32, [4 x i8] }>
%"class.llvm::DenseMap.97" = type <{ ptr, i32, i32, i32, [4 x i8] }>
%"class.llvm::DenseSet" = type { %"class.llvm::detail::DenseSetImpl" }
%"class.llvm::detail::DenseSetImpl" = type { %"class.llvm::DenseMap.100" }
%"class.llvm::DenseMap.100" = type <{ ptr, i32, i32, i32, [4 x i8] }>
%"class.llvm::DenseMap.103" = type <{ ptr, i32, i32, i32, [4 x i8] }>
%"class.llvm::SmallPtrSet.106" = type { %"class.llvm::SmallPtrSetImpl.base.108", [16 x ptr] }
%"class.llvm::SmallPtrSetImpl.base.108" = type { %"class.llvm::SmallPtrSetImplBase.base" }
%"class.llvm::DenseMap.109" = type <{ ptr, i32, i32, i32, [4 x i8] }>
%"class.llvm::SmallPtrSet.112" = type { %"class.llvm::SmallPtrSetImpl.base.114", [16 x ptr] }
%"class.llvm::SmallPtrSetImpl.base.114" = type { %"class.llvm::SmallPtrSetImplBase.base" }
%"class.llvm::DenseMap.115" = type <{ ptr, i32, i32, i32, [4 x i8] }>
%"class.llvm::DenseMap.118" = type <{ ptr, i32, i32, i32, [4 x i8] }>
%"class.(anonymous namespace)::InlineCostAnnotationWriter" = type { %"class.llvm::AssemblyAnnotationWriter", ptr }
%"class.llvm::AssemblyAnnotationWriter" = type { ptr }
%"class.llvm::ilist_node_base.31" = type { %"class.llvm::ilist_detail::node_base_prevnext.32" }
%"class.llvm::ilist_detail::node_base_prevnext.32" = type { ptr, ptr }
%"class.llvm::ilist_node_impl.35" = type { %"class.llvm::ilist_node_base.31" }
%"class.llvm::BasicBlock" = type { %"class.llvm::Value", %"class.llvm::ilist_node_with_parent.140", i8, i32, %"class.llvm::SymbolTableList.142", ptr }
%"class.llvm::ilist_node_with_parent.140" = type { %"class.llvm::ilist_node.141" }
%"class.llvm::ilist_node.141" = type { %"class.llvm::ilist_node_impl.35" }
%"class.llvm::SymbolTableList.142" = type { %"class.llvm::iplist_impl.143" }
%"class.llvm::iplist_impl.143" = type { %"class.llvm::simple_ilist.146" }
%"class.llvm::simple_ilist.146" = type { %"class.llvm::ilist_sentinel.149" }
%"class.llvm::ilist_sentinel.149" = type { %"class.llvm::ilist_node_impl" }
%"class.std::optional.177" = type { %"struct.std::_Optional_base.178" }
%"struct.std::_Optional_base.178" = type { %"struct.std::_Optional_payload.180" }
%"struct.std::_Optional_payload.180" = type { %"struct.std::_Optional_payload_base.base.182", [7 x i8] }
%"struct.std::_Optional_payload_base.base.182" = type <{ %"union.std::_Optional_payload_base<unsigned long>::_Storage", i8 }>
%"union.std::_Optional_payload_base<unsigned long>::_Storage" = type { i64 }
%"struct.std::_Optional_payload_base.181" = type <{ %"union.std::_Optional_payload_base<unsigned long>::_Storage", i8, [7 x i8] }>
%"class.llvm::ilist_iterator_w_bits.323" = type <{ ptr, i8, i8, [6 x i8] }>

; Function Attrs: mustprogress nounwind uwtable
define linkonce_odr hidden noundef ptr @_ZN4llvm12ilist_detail10NodeAccess11getValuePtrINS0_12node_optionsINS_11InstructionELb0ELb0EvLb1ENS_10BasicBlockEEEEENT_13const_pointerEPKNS_15ilist_node_implIS7_EE(ptr noundef %0) #1 comdat align 2 {
  %2 = alloca ptr, align 8
  store ptr %0, ptr %2, align 8
  %3 = load ptr, ptr %2, align 8
  %4 = icmp eq ptr %3, null
  br i1 %4, label %7, label %5

5:                                                ; preds = %1
  %6 = getelementptr inbounds i8, ptr %3, i64 -24
  br label %8

7:                                                ; preds = %1
  br label %8

8:                                                ; preds = %7, %5
  %9 = phi ptr [ %6, %5 ], [ null, %7 ]
  ret ptr %9
}

; Function Attrs: mustprogress nounwind uwtable
define linkonce_odr hidden noundef ptr @_ZNK4llvm12ilist_detail18node_base_prevnextINS_15ilist_node_baseILb0ENS_10BasicBlockEEELb0EE7getPrevEv(ptr noundef nonnull align 8 dereferenceable(16) %0) #1 comdat align 2 {
  %2 = alloca ptr, align 8
  store ptr %0, ptr %2, align 8
  %3 = load ptr, ptr %2, align 8
  %4 = getelementptr inbounds nuw %"class.llvm::ilist_detail::node_base_prevnext", ptr %3, i32 0, i32 0
  %5 = load ptr, ptr %4, align 8
  ret ptr %5
}

; Function Attrs: mustprogress nounwind uwtable
define linkonce_odr hidden noundef i32 @_ZNK4llvm5Value10getValueIDEv(ptr noundef nonnull align 8 dereferenceable(24) %0) #1 comdat align 2 {
  %2 = alloca ptr, align 8
  store ptr %0, ptr %2, align 8
  %3 = load ptr, ptr %2, align 8
  %4 = getelementptr inbounds nuw %"class.llvm::Value", ptr %3, i32 0, i32 0
  %5 = load i8, ptr %4, align 8
  %6 = zext i8 %5 to i32
  ret i32 %6
}

; Function Attrs: mustprogress nounwind uwtable
define linkonce_odr hidden noundef ptr @_ZN4llvm12ilist_detail18SpecificNodeAccessINS0_12node_optionsINS_11InstructionELb0ELb0EvLb1ENS_10BasicBlockEEEE11getValuePtrEPKNS_15ilist_node_implIS5_EE(ptr noundef %0) #1 comdat align 2 {
  %2 = alloca ptr, align 8
  store ptr %0, ptr %2, align 8
  %3 = load ptr, ptr %2, align 8
  %4 = call noundef ptr @_ZN4llvm12ilist_detail10NodeAccess11getValuePtrINS0_12node_optionsINS_11InstructionELb0ELb0EvLb1ENS_10BasicBlockEEEEENT_13const_pointerEPKNS_15ilist_node_implIS7_EE(ptr noundef %3)
  ret ptr %4
}

; Function Attrs: mustprogress nounwind uwtable
define linkonce_odr hidden noundef nonnull align 8 dereferenceable(10) ptr @_ZN4llvm21ilist_iterator_w_bitsINS_12ilist_detail12node_optionsINS_11InstructionELb0ELb0EvLb1ENS_10BasicBlockEEELb1ELb1EEppEv(ptr noundef nonnull align 8 dereferenceable(10) %0) #1 comdat align 2 {
  %2 = alloca ptr, align 8
  store ptr %0, ptr %2, align 8
  %3 = load ptr, ptr %2, align 8
  %4 = getelementptr inbounds nuw %"class.llvm::ilist_iterator_w_bits.323", ptr %3, i32 0, i32 0
  %5 = load ptr, ptr %4, align 8
  %6 = call noundef ptr @_ZNK4llvm15ilist_node_implINS_12ilist_detail12node_optionsINS_11InstructionELb0ELb0EvLb1ENS_10BasicBlockEEEE7getPrevEv(ptr noundef nonnull align 8 dereferenceable(24) %5)
  %7 = getelementptr inbounds nuw %"class.llvm::ilist_iterator_w_bits.323", ptr %3, i32 0, i32 0
  store ptr %6, ptr %7, align 8
  %8 = getelementptr inbounds nuw %"class.llvm::ilist_iterator_w_bits.323", ptr %3, i32 0, i32 1
  store i8 0, ptr %8, align 8
  %9 = getelementptr inbounds nuw %"class.llvm::ilist_iterator_w_bits.323", ptr %3, i32 0, i32 2
  store i8 0, ptr %9, align 1
  ret ptr %3
}

; Function Attrs: mustprogress nounwind uwtable
define linkonce_odr hidden void @_ZN4llvm21ilist_iterator_w_bitsINS_12ilist_detail12node_optionsINS_11InstructionELb0ELb0EvLb1ENS_10BasicBlockEEELb1ELb1EEC2ERKNS_15ilist_node_implIS5_EE(ptr noundef nonnull align 8 dereferenceable(10) %0, ptr noundef nonnull align 8 dereferenceable(24) %1) unnamed_addr #1 comdat align 2 {
  %3 = alloca ptr, align 8
  %4 = alloca ptr, align 8
  store ptr %0, ptr %3, align 8
  store ptr %1, ptr %4, align 8
  %5 = load ptr, ptr %3, align 8
  %6 = getelementptr inbounds nuw %"class.llvm::ilist_iterator_w_bits.323", ptr %5, i32 0, i32 0
  %7 = load ptr, ptr %4, align 8
  store ptr %7, ptr %6, align 8
  %8 = getelementptr inbounds nuw %"class.llvm::ilist_iterator_w_bits.323", ptr %5, i32 0, i32 1
  store i8 0, ptr %8, align 8
  %9 = getelementptr inbounds nuw %"class.llvm::ilist_iterator_w_bits.323", ptr %5, i32 0, i32 2
  store i8 0, ptr %9, align 1
  ret void
}

; Function Attrs: mustprogress nounwind uwtable
define linkonce_odr hidden noundef ptr @_ZNK4llvm15ilist_node_implINS_12ilist_detail12node_optionsINS_11InstructionELb0ELb0EvLb1ENS_10BasicBlockEEEE7getPrevEv(ptr noundef nonnull align 8 dereferenceable(24) %0) #1 comdat align 2 {
  %2 = alloca ptr, align 8
  store ptr %0, ptr %2, align 8
  %3 = load ptr, ptr %2, align 8
  %4 = call noundef ptr @_ZNK4llvm12ilist_detail18node_base_prevnextINS_15ilist_node_baseILb0ENS_10BasicBlockEEELb0EE7getPrevEv(ptr noundef nonnull align 8 dereferenceable(16) %3)
  ret ptr %4
}

; Function Attrs: mustprogress nounwind uwtable
define linkonce_odr hidden noundef zeroext i1 @_ZN4llvm11Instruction12isTerminatorEj(i32 noundef %0) #1 comdat align 2 {
  %2 = alloca i32, align 4
  store i32 %0, ptr %2, align 4
  %3 = load i32, ptr %2, align 4
  %4 = icmp uge i32 %3, 1
  br i1 %4, label %5, label %8

5:                                                ; preds = %1
  %6 = load i32, ptr %2, align 4
  %7 = icmp ult i32 %6, 12
  br label %8

8:                                                ; preds = %5, %1
  %9 = phi i1 [ false, %1 ], [ %7, %5 ]
  ret i1 %9
}

; Function Attrs: mustprogress nounwind uwtable
define linkonce_odr hidden noundef i32 @_ZNK4llvm11Instruction9getOpcodeEv(ptr noundef nonnull align 8 dereferenceable(72) %0) #1 comdat align 2 {
  %2 = alloca ptr, align 8
  store ptr %0, ptr %2, align 8
  %3 = load ptr, ptr %2, align 8
  %4 = call noundef i32 @_ZNK4llvm5Value10getValueIDEv(ptr noundef nonnull align 8 dereferenceable(24) %3)
  %5 = sub i32 %4, 29
  ret i32 %5
}

; Function Attrs: mustprogress nounwind uwtable
define linkonce_odr hidden noundef nonnull align 8 dereferenceable(72) ptr @_ZNK4llvm21ilist_iterator_w_bitsINS_12ilist_detail12node_optionsINS_11InstructionELb0ELb0EvLb1ENS_10BasicBlockEEELb1ELb1EEdeEv(ptr noundef nonnull align 8 dereferenceable(10) %0) #1 comdat align 2 {
  %2 = alloca ptr, align 8
  store ptr %0, ptr %2, align 8
  %3 = load ptr, ptr %2, align 8
  %4 = getelementptr inbounds nuw %"class.llvm::ilist_iterator_w_bits.323", ptr %3, i32 0, i32 0
  %5 = load ptr, ptr %4, align 8
  %6 = call noundef ptr @_ZN4llvm12ilist_detail18SpecificNodeAccessINS0_12node_optionsINS_11InstructionELb0ELb0EvLb1ENS_10BasicBlockEEEE11getValuePtrEPKNS_15ilist_node_implIS5_EE(ptr noundef %5)
  ret ptr %6
}

; Function Attrs: mustprogress nounwind uwtable
define linkonce_odr hidden { ptr, i64 } @_ZNK4llvm12simple_ilistINS_11InstructionEJNS_19ilist_iterator_bitsILb1EEENS_12ilist_parentINS_10BasicBlockEEEEE6rbeginEv(ptr noundef nonnull align 8 dereferenceable(24) %0) #1 comdat align 2 {
  %2 = alloca %"class.llvm::ilist_iterator_w_bits.323", align 8
  %3 = alloca ptr, align 8
  %4 = alloca %"class.llvm::ilist_iterator_w_bits.323", align 8
  store ptr %0, ptr %3, align 8
  %5 = load ptr, ptr %3, align 8
  %6 = getelementptr inbounds nuw %"class.llvm::simple_ilist.146", ptr %5, i32 0, i32 0
  call void @_ZN4llvm21ilist_iterator_w_bitsINS_12ilist_detail12node_optionsINS_11InstructionELb0ELb0EvLb1ENS_10BasicBlockEEELb1ELb1EEC2ERKNS_15ilist_node_implIS5_EE(ptr noundef nonnull align 8 dereferenceable(10) %4, ptr noundef nonnull align 8 dereferenceable(24) %6)
  %7 = call noundef nonnull align 8 dereferenceable(10) ptr @_ZN4llvm21ilist_iterator_w_bitsINS_12ilist_detail12node_optionsINS_11InstructionELb0ELb0EvLb1ENS_10BasicBlockEEELb1ELb1EEppEv(ptr noundef nonnull align 8 dereferenceable(10) %4)
  call void @llvm.memcpy.p0.p0.i64(ptr align 8 %2, ptr align 8 %7, i64 16, i1 false)
  %8 = load { ptr, i64 }, ptr %2, align 8
  ret { ptr, i64 } %8
}

; Function Attrs: mustprogress nounwind uwtable
define linkonce_odr hidden noundef zeroext i1 @_ZNK4llvm14ilist_sentinelINS_12ilist_detail12node_optionsINS_11InstructionELb0ELb0EvLb1ENS_10BasicBlockEEEE5emptyEv(ptr noundef nonnull align 8 dereferenceable(24) %0) #1 comdat align 2 {
  %2 = alloca ptr, align 8
  store ptr %0, ptr %2, align 8
  %3 = load ptr, ptr %2, align 8
  %4 = call noundef ptr @_ZNK4llvm15ilist_node_implINS_12ilist_detail12node_optionsINS_11InstructionELb0ELb0EvLb1ENS_10BasicBlockEEEE7getPrevEv(ptr noundef nonnull align 8 dereferenceable(24) %3)
  %5 = icmp eq ptr %3, %4
  ret i1 %5
}

; Function Attrs: mustprogress nounwind uwtable
define linkonce_odr hidden noundef nonnull align 8 dereferenceable(8) ptr @_ZNSt22_Optional_payload_baseImE6_M_getEv(ptr noundef nonnull align 8 dereferenceable(9) %0) #1 comdat align 2 {
  %2 = alloca ptr, align 8
  store ptr %0, ptr %2, align 8
  %3 = load ptr, ptr %2, align 8
  %4 = getelementptr inbounds nuw %"struct.std::_Optional_payload_base.181", ptr %3, i32 0, i32 0
  ret ptr %4
}

; Function Attrs: mustprogress nounwind uwtable
define linkonce_odr hidden noundef zeroext i1 @_ZNK4llvm11Instruction12isTerminatorEv(ptr noundef nonnull align 8 dereferenceable(72) %0) #1 comdat align 2 {
  %2 = alloca ptr, align 8
  store ptr %0, ptr %2, align 8
  %3 = load ptr, ptr %2, align 8
  %4 = call noundef i32 @_ZNK4llvm11Instruction9getOpcodeEv(ptr noundef nonnull align 8 dereferenceable(72) %3)
  %5 = call noundef zeroext i1 @_ZN4llvm11Instruction12isTerminatorEj(i32 noundef %4)
  ret i1 %5
}

; Function Attrs: mustprogress nounwind uwtable
define linkonce_odr hidden noundef nonnull align 8 dereferenceable(72) ptr @_ZNK4llvm12simple_ilistINS_11InstructionEJNS_19ilist_iterator_bitsILb1EEENS_12ilist_parentINS_10BasicBlockEEEEE4backEv(ptr noundef nonnull align 8 dereferenceable(24) %0) #1 comdat align 2 {
  %2 = alloca ptr, align 8
  %3 = alloca %"class.llvm::ilist_iterator_w_bits.323", align 8
  %4 = alloca { ptr, i64 }, align 8
  store ptr %0, ptr %2, align 8
  %5 = load ptr, ptr %2, align 8
  %6 = call { ptr, i64 } @_ZNK4llvm12simple_ilistINS_11InstructionEJNS_19ilist_iterator_bitsILb1EEENS_12ilist_parentINS_10BasicBlockEEEEE6rbeginEv(ptr noundef nonnull align 8 dereferenceable(24) %5)
  store { ptr, i64 } %6, ptr %4, align 8
  call void @llvm.memcpy.p0.p0.i64(ptr align 8 %3, ptr align 8 %4, i64 10, i1 false)
  %7 = call noundef nonnull align 8 dereferenceable(72) ptr @_ZNK4llvm21ilist_iterator_w_bitsINS_12ilist_detail12node_optionsINS_11InstructionELb0ELb0EvLb1ENS_10BasicBlockEEELb1ELb1EEdeEv(ptr noundef nonnull align 8 dereferenceable(10) %3)
  ret ptr %7
}

; Function Attrs: mustprogress nounwind uwtable
define linkonce_odr hidden noundef zeroext i1 @_ZNK4llvm12simple_ilistINS_11InstructionEJNS_19ilist_iterator_bitsILb1EEENS_12ilist_parentINS_10BasicBlockEEEEE5emptyEv(ptr noundef nonnull align 8 dereferenceable(24) %0) #1 comdat align 2 {
  %2 = alloca ptr, align 8
  store ptr %0, ptr %2, align 8
  %3 = load ptr, ptr %2, align 8
  %4 = getelementptr inbounds nuw %"class.llvm::simple_ilist.146", ptr %3, i32 0, i32 0
  %5 = call noundef zeroext i1 @_ZNK4llvm14ilist_sentinelINS_12ilist_detail12node_optionsINS_11InstructionELb0ELb0EvLb1ENS_10BasicBlockEEEE5emptyEv(ptr noundef nonnull align 8 dereferenceable(24) %4)
  ret i1 %5
}

; Function Attrs: mustprogress nounwind uwtable
define linkonce_odr hidden noundef nonnull align 8 dereferenceable(8) ptr @_ZNSt19_Optional_base_implImSt14_Optional_baseImLb1ELb1EEE6_M_getEv(ptr noundef nonnull align 1 dereferenceable(1) %0) #1 comdat align 2 {
  %2 = alloca ptr, align 8
  store ptr %0, ptr %2, align 8
  %3 = load ptr, ptr %2, align 8
  br label %4

4:                                                ; preds = %1
  br label %5

5:                                                ; preds = %4
  %6 = getelementptr inbounds nuw %"struct.std::_Optional_base.178", ptr %3, i32 0, i32 0
  %7 = call noundef nonnull align 8 dereferenceable(8) ptr @_ZNSt22_Optional_payload_baseImE6_M_getEv(ptr noundef nonnull align 8 dereferenceable(9) %6) #2
  ret ptr %7
}

; Function Attrs: mustprogress nounwind willreturn memory(read) uwtable
define linkonce_odr hidden noundef ptr @_ZNK4llvm10BasicBlock13getTerminatorEv(ptr noundef nonnull align 8 dereferenceable(80) %0) #5 comdat align 2 {
  %2 = alloca ptr, align 8
  %3 = alloca ptr, align 8
  store ptr %0, ptr %3, align 8
  %4 = load ptr, ptr %3, align 8
  %5 = getelementptr inbounds nuw %"class.llvm::BasicBlock", ptr %4, i32 0, i32 4
  %6 = call noundef zeroext i1 @_ZNK4llvm12simple_ilistINS_11InstructionEJNS_19ilist_iterator_bitsILb1EEENS_12ilist_parentINS_10BasicBlockEEEEE5emptyEv(ptr noundef nonnull align 8 dereferenceable(24) %5)
  br i1 %6, label %11, label %7

7:                                                ; preds = %1
  %8 = getelementptr inbounds nuw %"class.llvm::BasicBlock", ptr %4, i32 0, i32 4
  %9 = call noundef nonnull align 8 dereferenceable(72) ptr @_ZNK4llvm12simple_ilistINS_11InstructionEJNS_19ilist_iterator_bitsILb1EEENS_12ilist_parentINS_10BasicBlockEEEEE4backEv(ptr noundef nonnull align 8 dereferenceable(24) %8)
  %10 = call noundef zeroext i1 @_ZNK4llvm11Instruction12isTerminatorEv(ptr noundef nonnull align 8 dereferenceable(72) %9)
  br i1 %10, label %12, label %11

11:                                               ; preds = %7, %1
  store ptr null, ptr %2, align 8
  br label %15

12:                                               ; preds = %7
  %13 = getelementptr inbounds nuw %"class.llvm::BasicBlock", ptr %4, i32 0, i32 4
  %14 = call noundef nonnull align 8 dereferenceable(72) ptr @_ZNK4llvm12simple_ilistINS_11InstructionEJNS_19ilist_iterator_bitsILb1EEENS_12ilist_parentINS_10BasicBlockEEEEE4backEv(ptr noundef nonnull align 8 dereferenceable(24) %13)
  store ptr %14, ptr %2, align 8
  br label %15

15:                                               ; preds = %12, %11
  %16 = load ptr, ptr %2, align 8
  ret ptr %16
}

; Function Attrs: mustprogress nounwind uwtable
define linkonce_odr hidden noundef nonnull align 8 dereferenceable(8) ptr @_ZNRSt8optionalImEdeEv(ptr noundef nonnull align 8 dereferenceable(16) %0) #1 comdat align 2 {
  %2 = alloca ptr, align 8
  store ptr %0, ptr %2, align 8
  %3 = load ptr, ptr %2, align 8
  %4 = call noundef nonnull align 8 dereferenceable(8) ptr @_ZNSt19_Optional_base_implImSt14_Optional_baseImLb1ELb1EEE6_M_getEv(ptr noundef nonnull align 1 dereferenceable(1) %3) #2
  ret ptr %4
}

; Function Attrs: mustprogress nounwind uwtable
define linkonce_odr hidden noundef nonnull align 8 dereferenceable(8) ptr @_ZNK4llvm12function_refIFRNS_18BlockFrequencyInfoERNS_8FunctionEEEclES4_(ptr noundef nonnull align 8 dereferenceable(16) %0, ptr noundef nonnull align 8 dereferenceable(136) %1) #1 comdat align 2 {
  %3 = alloca ptr, align 8
  %4 = alloca ptr, align 8
  store ptr %0, ptr %3, align 8
  store ptr %1, ptr %4, align 8
  %5 = load ptr, ptr %3, align 8
  %6 = getelementptr inbounds nuw %"class.llvm::function_ref.79", ptr %5, i32 0, i32 0
  %7 = load ptr, ptr %6, align 8
  %8 = getelementptr inbounds nuw %"class.llvm::function_ref.79", ptr %5, i32 0, i32 1
  %9 = load i64, ptr %8, align 8
  %10 = load ptr, ptr %4, align 8
  %11 = call noundef nonnull align 8 dereferenceable(8) ptr %7(i64 noundef %9, ptr noundef nonnull align 8 dereferenceable(136) %10)
  ret ptr %11
}

; Function Attrs: mustprogress nounwind uwtable
define internal void @_ZN12_GLOBAL__N_122InlineCostCallAnalyzer15onBlockAnalyzedEPKN4llvm10BasicBlockE(ptr noundef nonnull align 8 dereferenceable(768) %0, ptr noundef %1) unnamed_addr #1 align 2 {
  %3 = alloca ptr, align 8
  %4 = alloca ptr, align 8
  %5 = alloca ptr, align 8
  %6 = alloca %"class.std::optional.177", align 8
  %7 = alloca ptr, align 8
  store ptr %0, ptr %3, align 8
  store ptr %1, ptr %4, align 8
  %8 = load ptr, ptr %3, align 8
  %9 = getelementptr inbounds nuw %"class.(anonymous namespace)::InlineCostCallAnalyzer", ptr %8, i32 0, i32 11
  %10 = load i8, ptr %9, align 2
  %11 = trunc i8 %10 to i1
  br i1 %11, label %12, label %39

12:                                               ; preds = %2
  %13 = getelementptr inbounds nuw %"class.(anonymous namespace)::CallAnalyzer", ptr %8, i32 0, i32 3
  %14 = getelementptr inbounds nuw %"class.(anonymous namespace)::CallAnalyzer", ptr %8, i32 0, i32 5
  %15 = load ptr, ptr %14, align 8
  %16 = call noundef nonnull align 8 dereferenceable(8) ptr @_ZNK4llvm12function_refIFRNS_18BlockFrequencyInfoERNS_8FunctionEEEclES4_(ptr noundef nonnull align 8 dereferenceable(16) %13, ptr noundef nonnull align 8 dereferenceable(136) %15)
  store ptr %16, ptr %5, align 8
  %17 = load ptr, ptr %5, align 8
  %18 = load ptr, ptr %4, align 8
  %19 = call { i64, i8 } @_ZNK4llvm18BlockFrequencyInfo20getBlockProfileCountEPKNS_10BasicBlockEb(ptr noundef nonnull align 8 dereferenceable(8) %17, ptr noundef %18, i1 noundef zeroext false)
  %20 = getelementptr inbounds nuw %"class.std::optional.177", ptr %6, i32 0, i32 0
  %21 = getelementptr inbounds nuw %"struct.std::_Optional_base.178", ptr %20, i32 0, i32 0
  %22 = getelementptr inbounds nuw { i64, i8 }, ptr %21, i32 0, i32 0
  %23 = extractvalue { i64, i8 } %19, 0
  store i64 %23, ptr %22, align 8
  %24 = getelementptr inbounds nuw { i64, i8 }, ptr %21, i32 0, i32 1
  %25 = extractvalue { i64, i8 } %19, 1
  store i8 %25, ptr %24, align 8
  %26 = call noundef nonnull align 8 dereferenceable(8) ptr @_ZNRSt8optionalImEdeEv(ptr noundef nonnull align 8 dereferenceable(16) %6) #2
  %27 = load i64, ptr %26, align 8
  %28 = icmp eq i64 %27, 0
  br i1 %28, label %29, label %38

29:                                               ; preds = %12
  %30 = getelementptr inbounds nuw %"class.(anonymous namespace)::InlineCostCallAnalyzer", ptr %8, i32 0, i32 12
  %31 = load i32, ptr %30, align 4
  %32 = getelementptr inbounds nuw %"class.(anonymous namespace)::InlineCostCallAnalyzer", ptr %8, i32 0, i32 13
  %33 = load i32, ptr %32, align 8
  %34 = sub nsw i32 %31, %33
  %35 = getelementptr inbounds nuw %"class.(anonymous namespace)::InlineCostCallAnalyzer", ptr %8, i32 0, i32 14
  %36 = load i32, ptr %35, align 4
  %37 = add nsw i32 %36, %34
  store i32 %37, ptr %35, align 4
  br label %38

38:                                               ; preds = %29, %12
  br label %39

39:                                               ; preds = %38, %2
  %40 = load ptr, ptr %4, align 8
  %41 = call noundef ptr @_ZNK4llvm10BasicBlock13getTerminatorEv(ptr noundef nonnull align 8 dereferenceable(80) %40) #13
  store ptr %41, ptr %7, align 8
  %42 = getelementptr inbounds nuw %"class.(anonymous namespace)::InlineCostCallAnalyzer", ptr %8, i32 0, i32 19
  %43 = load i8, ptr %42, align 8
  %44 = trunc i8 %43 to i1
  br i1 %44, label %45, label %56

45:                                               ; preds = %39
  %46 = load ptr, ptr %7, align 8
  %47 = call noundef i32 @_ZNK4llvm11Instruction16getNumSuccessorsEv(ptr noundef nonnull align 8 dereferenceable(72) %46) #13
  %48 = icmp ugt i32 %47, 1
  br i1 %48, label %49, label %56

49:                                               ; preds = %45
  %50 = getelementptr inbounds nuw %"class.(anonymous namespace)::InlineCostCallAnalyzer", ptr %8, i32 0, i32 4
  %51 = load i32, ptr %50, align 4
  %52 = getelementptr inbounds nuw %"class.(anonymous namespace)::InlineCostCallAnalyzer", ptr %8, i32 0, i32 7
  %53 = load i32, ptr %52, align 8
  %54 = sub nsw i32 %53, %51
  store i32 %54, ptr %52, align 8
  %55 = getelementptr inbounds nuw %"class.(anonymous namespace)::InlineCostCallAnalyzer", ptr %8, i32 0, i32 19
  store i8 0, ptr %55, align 8
  br label %56

56:                                               ; preds = %49, %45, %39
  ret void
}