; Function Attrs: mustprogress nounwind uwtable
define internal void @_ZN12_GLOBAL__N_122InlineCostCallAnalyzer15onBlockAnalyzedEPKN4llvm10BasicBlockE(ptr noundef nonnull align 8 captures(none) dereferenceable(768) %0, ptr noundef %1) unnamed_addr #0 align 2 {
  %3 = getelementptr inbounds nuw i8, ptr %0, i64 650
  %4 = load i8, ptr %3, align 2
  %5 = trunc i8 %4 to i1
  br i1 %5, label %6, label %26

6:                                                ; preds = %2
  %7 = getelementptr inbounds nuw i8, ptr %0, i64 32
  %8 = getelementptr inbounds nuw i8, ptr %0, i64 56
  %9 = load ptr, ptr %8, align 8
  %10 = load ptr, ptr %7, align 8
  %11 = getelementptr inbounds nuw i8, ptr %0, i64 40
  %12 = load i64, ptr %11, align 8
  %13 = tail call noundef nonnull align 8 dereferenceable(8) ptr %10(i64 noundef %12, ptr noundef nonnull align 8 dereferenceable(136) %9) #28
  %14 = tail call { i64, i8 } @_ZNK4llvm18BlockFrequencyInfo20getBlockProfileCountEPKNS_10BasicBlockEb(ptr noundef nonnull align 8 dereferenceable(8) %13, ptr noundef %1, i1 noundef zeroext false) #28
  %15 = extractvalue { i64, i8 } %14, 0
  %16 = icmp eq i64 %15, 0
  br i1 %16, label %17, label %26

17:                                               ; preds = %6
  %18 = getelementptr inbounds nuw i8, ptr %0, i64 652
  %19 = load i32, ptr %18, align 4
  %20 = getelementptr inbounds nuw i8, ptr %0, i64 656
  %21 = load i32, ptr %20, align 8
  %22 = sub i32 %19, %21
  %23 = getelementptr inbounds nuw i8, ptr %0, i64 660
  %24 = load i32, ptr %23, align 4
  %25 = add nsw i32 %22, %24
  store i32 %25, ptr %23, align 4
  br label %26

26:                                               ; preds = %6, %17, %2
  %27 = getelementptr inbounds nuw i8, ptr %0, i64 712
  %28 = load i8, ptr %27, align 8
  %29 = trunc i8 %28 to i1
  br i1 %29, label %_ZNK4llvm10BasicBlock13getTerminatorEv.exit, label %45

_ZNK4llvm10BasicBlock13getTerminatorEv.exit:      ; preds = %26
  %30 = getelementptr inbounds nuw i8, ptr %1, i64 48
  %31 = load ptr, ptr %30, align 8
  %32 = icmp ne ptr %30, %31
  tail call void @llvm.assume(i1 %32)
  %33 = getelementptr inbounds i8, ptr %31, i64 -24
  %34 = load i8, ptr %33, align 8
  %35 = add i8 %34, -30
  %36 = icmp ult i8 %35, 11
  %spec.select.i = select i1 %36, ptr %33, ptr null
  %37 = tail call noundef i32 @_ZNK4llvm11Instruction16getNumSuccessorsEv(ptr noundef nonnull align 8 dereferenceable(72) %spec.select.i) #30
  %38 = icmp ugt i32 %37, 1
  br i1 %38, label %39, label %45

39:                                               ; preds = %_ZNK4llvm10BasicBlock13getTerminatorEv.exit
  %40 = getelementptr inbounds nuw i8, ptr %0, i64 604
  %41 = load i32, ptr %40, align 4
  %42 = getelementptr inbounds nuw i8, ptr %0, i64 640
  %43 = load i32, ptr %42, align 8
  %44 = sub nsw i32 %43, %41
  store i32 %44, ptr %42, align 8
  store i8 0, ptr %27, align 8
  br label %45

45:                                               ; preds = %39, %_ZNK4llvm10BasicBlock13getTerminatorEv.exit, %26
  ret void
}